target datalayout = "e-m:e-p270:32:32-p271:32:32-p272:64:64-i64:64-i128:128-f80:128-n8:16:32:64-S128"
target triple = "x86_64-pc-linux-gnu"

%"class.vcg::face::VertexRef" = type { %"class.vcg::Arity1.248", [3 x ptr] }
%"class.vcg::Arity1.248" = type { %"class.vcg::face::InfoOcf" }
%"class.vcg::face::InfoOcf" = type { ptr }

; Function Attrs: mustprogress nounwind uwtable
define linkonce_odr noundef nonnull align 8 dereferenceable(8) ptr @_ZN3vcg4face9VertexRefINS_6Arity1INS_8FaceBaseI11CUsedTypesOEENS0_7InfoOcfEEEE1VEi(ptr noundef nonnull align 8 dereferenceable(32) %0, i32 noundef %1) #4 comdat align 2 {
  %3 = alloca ptr, align 8
  %4 = alloca i32, align 4
  store ptr %0, ptr %3, align 8
  store i32 %1, ptr %4, align 4
  %5 = load ptr, ptr %3, align 8
  %6 = getelementptr inbounds %"class.vcg::face::VertexRef", ptr %5, i32 0, i32 1
  %7 = load i32, ptr %4, align 4
  %8 = sext i32 %7 to i64
  %9 = getelementptr inbounds [3 x ptr], ptr %6, i64 0, i64 %8
  ret ptr %9
}

; Function Attrs: mustprogress uwtable
define void @_ZNK25FilterImgPatchParamPlugin16getFaceNeighborsEP6CFaceORSt3setIS1_St4lessIS1_ESaIS1_EE(ptr noundef nonnull align 8 dereferenceable(88) %0, ptr noundef %1, ptr noundef nonnull align 8 dereferenceable(48) %2) #5 align 2 {
  %4 = alloca ptr, align 8
  %5 = alloca ptr, align 8
  %6 = alloca ptr, align 8
  store ptr %0, ptr %4, align 8
  store ptr %1, ptr %5, align 8
  store ptr %2, ptr %6, align 8
  %7 = load ptr, ptr %4, align 8
  %8 = load ptr, ptr %5, align 8
  %9 = call noundef nonnull align 8 dereferenceable(8) ptr @_ZN3vcg4face9VertexRefINS_6Arity1INS_8FaceBaseI11CUsedTypesOEENS0_7InfoOcfEEEE1VEi(ptr noundef nonnull align 8 dereferenceable(32) %8, i32 noundef 0)
  %10 = load ptr, ptr %9, align 8
  %11 = load ptr, ptr %6, align 8
  call void @_ZNK25FilterImgPatchParamPlugin12getNeighborsEP8CVertexORSt3setIP6CFaceOSt4lessIS4_ESaIS4_EE(ptr noundef nonnull align 8 dereferenceable(88) %7, ptr noundef %10, ptr noundef nonnull align 8 dereferenceable(48) %11)
  %12 = load ptr, ptr %5, align 8
  %13 = call noundef nonnull align 8 dereferenceable(8) ptr @_ZN3vcg4face9VertexRefINS_6Arity1INS_8FaceBaseI11CUsedTypesOEENS0_7InfoOcfEEEE1VEi(ptr noundef nonnull align 8 dereferenceable(32) %12, i32 noundef 1)
  %14 = load ptr, ptr %13, align 8
  %15 = load ptr, ptr %6, align 8
  call void @_ZNK25FilterImgPatchParamPlugin12getNeighborsEP8CVertexORSt3setIP6CFaceOSt4lessIS4_ESaIS4_EE(ptr noundef nonnull align 8 dereferenceable(88) %7, ptr noundef %14, ptr noundef nonnull align 8 dereferenceable(48) %15)
  %16 = load ptr, ptr %5, align 8
  %17 = call noundef nonnull align 8 dereferenceable(8) ptr @_ZN3vcg4face9VertexRefINS_6Arity1INS_8FaceBaseI11CUsedTypesOEENS0_7InfoOcfEEEE1VEi(ptr noundef nonnull align 8 dereferenceable(32) %16, i32 noundef 2)
  %18 = load ptr, ptr %17, align 8
  %19 = load ptr, ptr %6, align 8
  call void @_ZNK25FilterImgPatchParamPlugin12getNeighborsEP8CVertexORSt3setIP6CFaceOSt4lessIS4_ESaIS4_EE(ptr noundef nonnull align 8 dereferenceable(88) %7, ptr noundef %18, ptr noundef nonnull align 8 dereferenceable(48) %19)
  ret void
}