; Function Attrs: mustprogress uwtable
define void @_ZNK25FilterImgPatchParamPlugin16getFaceNeighborsEP6CFaceORSt3setIS1_St4lessIS1_ESaIS1_EE(ptr nocapture noundef nonnull readnone align 8 dereferenceable(88) %0, ptr nocapture noundef readonly %1, ptr noundef nonnull align 8 dereferenceable(48) %2) local_unnamed_addr #9 align 2 {
  %4 = getelementptr inbounds i8, ptr %1, i64 8
  %5 = load ptr, ptr %4, align 8
  tail call void @_ZNK25FilterImgPatchParamPlugin12getNeighborsEP8CVertexORSt3setIP6CFaceOSt4lessIS4_ESaIS4_EE(ptr nonnull align 8 poison, ptr noundef %5, ptr noundef nonnull align 8 dereferenceable(48) %2)
  %6 = getelementptr inbounds i8, ptr %1, i64 16
  %7 = load ptr, ptr %6, align 8
  tail call void @_ZNK25FilterImgPatchParamPlugin12getNeighborsEP8CVertexORSt3setIP6CFaceOSt4lessIS4_ESaIS4_EE(ptr nonnull align 8 poison, ptr noundef %7, ptr noundef nonnull align 8 dereferenceable(48) %2)
  %8 = getelementptr inbounds i8, ptr %1, i64 24
  %9 = load ptr, ptr %8, align 8
  tail call void @_ZNK25FilterImgPatchParamPlugin12getNeighborsEP8CVertexORSt3setIP6CFaceOSt4lessIS4_ESaIS4_EE(ptr nonnull align 8 poison, ptr noundef %9, ptr noundef nonnull align 8 dereferenceable(48) %2)
  ret void
}